ccopy_reg
_reconstructor
p0
(csklearn.preprocessing.label
MultiLabelBinarizer
p1
c__builtin__
object
p2
Ntp3
Rp4
(dp5
S'classes_'
p6
cnumpy.core.multiarray
_reconstruct
p7
(cnumpy
ndarray
p8
(I0
tp9
S'b'
p10
tp11
Rp12
(I1
(I7
tp13
cnumpy
dtype
p14
(S'O8'
p15
I0
I1
tp16
Rp17
(I3
S'|'
p18
NNNI-1
I-1
I63
tp19
bI00
(lp20
cnumpy.core.multiarray
scalar
p21
(g14
(S'S5'
p22
I0
I1
tp23
Rp24
(I3
S'|'
p25
NNNI5
I1
I0
tp26
bS'Angry'
p27
tp28
Rp29
ag21
(g14
(S'S7'
p30
I0
I1
tp31
Rp32
(I3
S'|'
p33
NNNI7
I1
I0
tp34
bS'Disgust'
p35
tp36
Rp37
ag21
(g14
(S'S4'
p38
I0
I1
tp39
Rp40
(I3
S'|'
p41
NNNI4
I1
I0
tp42
bS'Fear'
p43
tp44
Rp45
ag21
(g14
(S'S5'
p46
I0
I1
tp47
Rp48
(I3
S'|'
p49
NNNI5
I1
I0
tp50
bS'Happy'
p51
tp52
Rp53
ag21
(g14
(S'S7'
p54
I0
I1
tp55
Rp56
(I3
S'|'
p57
NNNI7
I1
I0
tp58
bS'Neutral'
p59
tp60
Rp61
ag21
(g14
(S'S3'
p62
I0
I1
tp63
Rp64
(I3
S'|'
p65
NNNI3
I1
I0
tp66
bS'Sad'
p67
tp68
Rp69
ag21
(g14
(S'S8'
p70
I0
I1
tp71
Rp72
(I3
S'|'
p73
NNNI8
I1
I0
tp74
bS'Surprise'
p75
tp76
Rp77
atp78
bsS'sparse_output'
p79
I00
sS'classes'
p80
NsS'_sklearn_version'
p81
S'0.19.1'
p82
sb.